; Function Attrs: nofree nounwind uwtable
define noundef ptr @av_get_pix_fmt_string(ptr noundef returned writeonly captures(ret: address, provenance) %0, i32 noundef %1, i32 noundef %2) local_unnamed_addr #9 {
  %4 = icmp slt i32 %2, 0
  br i1 %4, label %5, label %8

5:                                                ; preds = %3
  %6 = sext i32 %1 to i64
  %7 = tail call i32 (ptr, i64, ptr, ...) @snprintf(ptr noundef %0, i64 noundef %6, ptr noundef nonnull @.str.6) #15
  br label %34

8:                                                ; preds = %3
  %9 = zext nneg i32 %2 to i64
  %10 = getelementptr inbounds nuw [258 x %struct.AVPixFmtDescriptor], ptr @av_pix_fmt_descriptors, i64 0, i64 %9
  %11 = sext i32 %1 to i64
  %12 = load ptr, ptr %10, align 16, !tbaa !25
  %13 = getelementptr inbounds nuw i8, ptr %10, i64 8
  %14 = load i8, ptr %13, align 8, !tbaa !30
  %15 = zext i8 %14 to i32
  %16 = getelementptr inbounds nuw i8, ptr %10, i64 9
  %17 = load i8, ptr %16, align 1, !tbaa !28
  %18 = zext i8 %17 to i32
  %19 = getelementptr inbounds nuw i8, ptr %10, i64 10
  %20 = load i8, ptr %19, align 2, !tbaa !29
  %21 = zext i8 %20 to i32
  %22 = add nuw nsw i32 %21, %18
  %.not.i = icmp eq i8 %14, 0
  br i1 %.not.i, label %av_get_bits_per_pixel.exit, label %.lr.ph.i

.lr.ph.i:                                         ; preds = %8
  %23 = getelementptr i8, ptr %10, i64 40
  %wide.trip.count.i = zext i8 %14 to i64
  br label %24

24:                                               ; preds = %24, %.lr.ph.i
  %indvars.iv.i = phi i64 [ 0, %.lr.ph.i ], [ %indvars.iv.next.i, %24 ]
  %.01415.i = phi i32 [ 0, %.lr.ph.i ], [ %31, %24 ]
  %25 = trunc i64 %indvars.iv.i to i32
  %26 = add i32 %25, -1
  %or.cond.i = icmp ult i32 %26, 2
  %27 = select i1 %or.cond.i, i32 0, i32 %22
  %.idx.i = mul nuw nsw i64 %indvars.iv.i, 20
  %28 = getelementptr i8, ptr %23, i64 %.idx.i
  %29 = load i32, ptr %28, align 4, !tbaa !31
  %30 = shl i32 %29, %27
  %31 = add nsw i32 %30, %.01415.i
  %indvars.iv.next.i = add nuw nsw i64 %indvars.iv.i, 1
  %exitcond.not.i = icmp eq i64 %indvars.iv.next.i, %wide.trip.count.i
  br i1 %exitcond.not.i, label %av_get_bits_per_pixel.exit, label %24, !llvm.loop !33

av_get_bits_per_pixel.exit:                       ; preds = %24, %8
  %.014.lcssa.i = phi i32 [ 0, %8 ], [ %31, %24 ]
  %32 = ashr i32 %.014.lcssa.i, %22
  %33 = tail call i32 (ptr, i64, ptr, ...) @snprintf(ptr noundef %0, i64 noundef %11, ptr noundef nonnull @.str.7, ptr noundef %12, i32 noundef %15, i32 noundef %32) #15
  br label %34

34:                                               ; preds = %av_get_bits_per_pixel.exit, %5
  ret ptr %0
}